target datalayout = "e-m:e-p270:32:32-p271:32:32-p272:64:64-i64:64-i128:128-f80:128-n8:16:32:64-S128"
target triple = "x86_64-pc-linux-gnu"

%struct.bio_st = type { ptr, ptr, ptr, i32, i32, i32, i32, i32, i32, ptr, ptr, i64, i64 }

; Function Attrs: nounwind uwtable
define internal i64 @buffer_callback_ctrl(ptr noundef %0, i32 noundef %1, ptr noundef %2) #0 {
  %4 = alloca i64, align 8
  %5 = alloca ptr, align 8
  %6 = alloca i32, align 4
  %7 = alloca ptr, align 8
  %8 = alloca i64, align 8
  %9 = alloca i32, align 4
  store ptr %0, ptr %5, align 8, !tbaa !6
  store i32 %1, ptr %6, align 4, !tbaa !11
  store ptr %2, ptr %7, align 8, !tbaa !36
  call void @llvm.lifetime.start.p0(i64 8, ptr %8) #8
  store i64 1, ptr %8, align 8, !tbaa !35
  %10 = load ptr, ptr %5, align 8, !tbaa !6
  %11 = getelementptr inbounds nuw %struct.bio_st, ptr %10, i32 0, i32 10
  %12 = load ptr, ptr %11, align 8, !tbaa !21
  %13 = icmp eq ptr %12, null
  br i1 %13, label %14, label %15

14:                                               ; preds = %3
  store i64 0, ptr %4, align 8
  store i32 1, ptr %9, align 4
  br label %26

15:                                               ; preds = %3
  %16 = load i32, ptr %6, align 4, !tbaa !11
  switch i32 %16, label %17 [
  ]

17:                                               ; preds = %15
  %18 = load ptr, ptr %5, align 8, !tbaa !6
  %19 = getelementptr inbounds nuw %struct.bio_st, ptr %18, i32 0, i32 10
  %20 = load ptr, ptr %19, align 8, !tbaa !21
  %21 = load i32, ptr %6, align 4, !tbaa !11
  %22 = load ptr, ptr %7, align 8, !tbaa !36
  %23 = call i64 @BIO_callback_ctrl(ptr noundef %20, i32 noundef %21, ptr noundef %22)
  store i64 %23, ptr %8, align 8, !tbaa !35
  br label %24

24:                                               ; preds = %17
  %25 = load i64, ptr %8, align 8, !tbaa !35
  store i64 %25, ptr %4, align 8
  store i32 1, ptr %9, align 4
  br label %26

26:                                               ; preds = %24, %14
  call void @llvm.lifetime.end.p0(i64 8, ptr %8) #8
  %27 = load i64, ptr %4, align 8
  ret i64 %27
}